; Function Attrs: mustprogress nofree norecurse nosync nounwind willreturn memory(read, inaccessiblemem: none) uwtable
define dso_local noundef range(i32 -1, 114) i32 @_ZNK4llvm4Type18getFPMantissaWidthEv(ptr noundef nonnull readonly align 8 captures(none) dereferenceable(24) %0) local_unnamed_addr #7 align 2 {
  %2 = getelementptr inbounds nuw i8, ptr %0, i64 8
  %3 = load i32, ptr %2, align 8
  %4 = and i32 %3, 255
  %5 = add nsw i32 %4, -19
  %spec.select.i.i.i.i.i.i.i.i8 = icmp ult i32 %5, -2
  br i1 %spec.select.i.i.i.i.i.i.i.i8, label %tailrecurse._crit_edge, label %tailrecurse

tailrecurse:                                      ; preds = %1, %tailrecurse
  %.tr9 = phi ptr [ %7, %tailrecurse ], [ %0, %1 ]
  %6 = getelementptr inbounds nuw i8, ptr %.tr9, i64 24
  %7 = load ptr, ptr %6, align 8
  %8 = getelementptr inbounds nuw i8, ptr %7, i64 8
  %9 = load i32, ptr %8, align 8
  %10 = and i32 %9, 255
  %11 = add nsw i32 %10, -19
  %spec.select.i.i.i.i.i.i.i.i = icmp ult i32 %11, -2
  br i1 %spec.select.i.i.i.i.i.i.i.i, label %tailrecurse._crit_edge, label %tailrecurse

tailrecurse._crit_edge:                           ; preds = %tailrecurse, %1
  %.lcssa7 = phi i32 [ %3, %1 ], [ %9, %tailrecurse ]
  %.lcssa = phi i32 [ %4, %1 ], [ %10, %tailrecurse ]
  %trunc = trunc i32 %.lcssa7 to i8
  %12 = icmp ult i8 %trunc, 5
  br i1 %12, label %switch.lookup, label %13

13:                                               ; preds = %tailrecurse._crit_edge
  %14 = icmp eq i32 %.lcssa, 5
  %. = select i1 %14, i32 113, i32 -1
  br label %16

switch.lookup:                                    ; preds = %tailrecurse._crit_edge
  %trunc.mask = and i32 %.lcssa7, 7
  %15 = zext nneg i32 %trunc.mask to i64
  %switch.gep = getelementptr inbounds nuw [5 x i32], ptr @switch.table._ZNK4llvm4Type18getFPMantissaWidthEv, i64 0, i64 %15
  %switch.load = load i32, ptr %switch.gep, align 4
  br label %16

16:                                               ; preds = %switch.lookup, %13
  %.0 = phi i32 [ %., %13 ], [ %switch.load, %switch.lookup ]
  ret i32 %.0
}